target datalayout = "e-m:e-p270:32:32-p271:32:32-p272:64:64-i64:64-i128:128-f80:128-n8:16:32:64-S128"
target triple = "x86_64-unknown-linux-gnu"

; Function Attrs: mustprogress nounwind uwtable
define noundef i32 @_ZN8proxygen8Sampling12rateToWeightEd(double noundef %rate) #1 align 2 {
entry:
  %retval = alloca i32, align 4
  %rate.addr = alloca double, align 8
  %scaledRate = alloca i32, align 4
  store double %rate, ptr %rate.addr, align 8
  %0 = load double, ptr %rate.addr, align 8
  %mul = fmul double 1.000000e+06, %0
  %conv = fptoui double %mul to i32
  store i32 %conv, ptr %scaledRate, align 4
  %1 = load i32, ptr %scaledRate, align 4
  %cmp = icmp eq i32 %1, 0
  br i1 %cmp, label %if.then, label %if.end

if.then:                                          ; preds = %entry
  store i32 0, ptr %retval, align 4
  br label %return

if.end:                                           ; preds = %entry
  %2 = load i32, ptr %scaledRate, align 4
  %div = udiv i32 1000000, %2
  store i32 %div, ptr %retval, align 4
  br label %return

return:                                           ; preds = %if.end, %if.then
  %3 = load i32, ptr %retval, align 4
  ret i32 %3
}