; Function Attrs: mustprogress nofree norecurse nosync nounwind willreturn memory(none) uwtable
define noundef i32 @_ZN8proxygen8Sampling12rateToWeightEd(double noundef %rate) local_unnamed_addr #1 align 2 {
entry:
  %mul = fmul double %rate, 1.000000e+06
  %conv = fptoui double %mul to i32
  %cmp = icmp eq i32 %conv, 0
  br i1 %cmp, label %return, label %if.end

if.end:                                           ; preds = %entry
  %div = udiv i32 1000000, %conv
  br label %return

return:                                           ; preds = %entry, %if.end
  %retval.0 = phi i32 [ %div, %if.end ], [ 0, %entry ]
  ret i32 %retval.0
}